target datalayout = "e-m:e-p270:32:32-p271:32:32-p272:64:64-i64:64-i128:128-f80:128-n8:16:32:64-S128"
target triple = "x86_64-pc-linux-gnu"

%struct._object = type { %union.anon, ptr }
%union.anon = type { i64 }
%struct._PyRangeIterObject = type { %struct._object, i64, i64, i64 }

@_Py_NoneStruct = external global %struct._object, align 8

; Function Attrs: nounwind uwtable
define internal ptr @rangeiter_setstate(ptr noundef %0, ptr noundef %1) #0 {
  %3 = alloca ptr, align 8
  %4 = alloca ptr, align 8
  %5 = alloca ptr, align 8
  %6 = alloca i64, align 8
  %7 = alloca i32, align 4
  store ptr %0, ptr %4, align 8, !tbaa !4
  store ptr %1, ptr %5, align 8, !tbaa !18
  call void @llvm.lifetime.start.p0(i64 8, ptr %6) #5
  %8 = load ptr, ptr %5, align 8, !tbaa !18
  %9 = call i64 @PyLong_AsLong(ptr noundef %8)
  store i64 %9, ptr %6, align 8, !tbaa !16
  %10 = load i64, ptr %6, align 8, !tbaa !16
  %11 = icmp eq i64 %10, -1
  br i1 %11, label %12, label %16

12:                                               ; preds = %2
  %13 = call ptr @PyErr_Occurred()
  %14 = icmp ne ptr %13, null
  br i1 %14, label %15, label %16

15:                                               ; preds = %12
  store ptr null, ptr %3, align 8
  store i32 1, ptr %7, align 4
  br label %46

16:                                               ; preds = %12, %2
  %17 = load i64, ptr %6, align 8, !tbaa !16
  %18 = icmp slt i64 %17, 0
  br i1 %18, label %19, label %20

19:                                               ; preds = %16
  store i64 0, ptr %6, align 8, !tbaa !16
  br label %31

20:                                               ; preds = %16
  %21 = load i64, ptr %6, align 8, !tbaa !16
  %22 = load ptr, ptr %4, align 8, !tbaa !4
  %23 = getelementptr inbounds nuw %struct._PyRangeIterObject, ptr %22, i32 0, i32 3
  %24 = load i64, ptr %23, align 8, !tbaa !28
  %25 = icmp sgt i64 %21, %24
  br i1 %25, label %26, label %30

26:                                               ; preds = %20
  %27 = load ptr, ptr %4, align 8, !tbaa !4
  %28 = getelementptr inbounds nuw %struct._PyRangeIterObject, ptr %27, i32 0, i32 3
  %29 = load i64, ptr %28, align 8, !tbaa !28
  store i64 %29, ptr %6, align 8, !tbaa !16
  br label %30

30:                                               ; preds = %26, %20
  br label %31

31:                                               ; preds = %30, %19
  %32 = load i64, ptr %6, align 8, !tbaa !16
  %33 = load ptr, ptr %4, align 8, !tbaa !4
  %34 = getelementptr inbounds nuw %struct._PyRangeIterObject, ptr %33, i32 0, i32 2
  %35 = load i64, ptr %34, align 8, !tbaa !31
  %36 = mul i64 %32, %35
  %37 = load ptr, ptr %4, align 8, !tbaa !4
  %38 = getelementptr inbounds nuw %struct._PyRangeIterObject, ptr %37, i32 0, i32 1
  %39 = load i64, ptr %38, align 8, !tbaa !30
  %40 = add i64 %39, %36
  store i64 %40, ptr %38, align 8, !tbaa !30
  %41 = load i64, ptr %6, align 8, !tbaa !16
  %42 = load ptr, ptr %4, align 8, !tbaa !4
  %43 = getelementptr inbounds nuw %struct._PyRangeIterObject, ptr %42, i32 0, i32 3
  %44 = load i64, ptr %43, align 8, !tbaa !28
  %45 = sub i64 %44, %41
  store i64 %45, ptr %43, align 8, !tbaa !28
  store ptr @_Py_NoneStruct, ptr %3, align 8
  store i32 1, ptr %7, align 4
  br label %46

46:                                               ; preds = %31, %15
  call void @llvm.lifetime.end.p0(i64 8, ptr %6) #5
  %47 = load ptr, ptr %3, align 8
  ret ptr %47
}