; Function Attrs: nounwind uwtable
define internal noundef ptr @rangeiter_setstate(ptr noundef captures(none) %0, ptr noundef %1) #0 {
  %3 = tail call i64 @PyLong_AsLong(ptr noundef %1) #6
  %4 = icmp eq i64 %3, -1
  br i1 %4, label %5, label %7

5:                                                ; preds = %2
  %6 = tail call ptr @PyErr_Occurred() #6
  %.not = icmp eq ptr %6, null
  br i1 %.not, label %.thread, label %21

7:                                                ; preds = %2
  %8 = icmp slt i64 %3, 0
  br i1 %8, label %.thread, label %9

9:                                                ; preds = %7
  %10 = getelementptr inbounds nuw i8, ptr %0, i64 32
  %11 = load i64, ptr %10, align 8, !tbaa !22
  %spec.select = tail call i64 @llvm.smin.i64(i64 %3, i64 %11)
  br label %.thread

.thread:                                          ; preds = %5, %9, %7
  %.0 = phi i64 [ 0, %7 ], [ %spec.select, %9 ], [ 0, %5 ]
  %12 = getelementptr inbounds nuw i8, ptr %0, i64 24
  %13 = load i64, ptr %12, align 8, !tbaa !21
  %14 = mul i64 %13, %.0
  %15 = getelementptr inbounds nuw i8, ptr %0, i64 16
  %16 = load i64, ptr %15, align 8, !tbaa !18
  %17 = add i64 %16, %14
  store i64 %17, ptr %15, align 8, !tbaa !18
  %18 = getelementptr inbounds nuw i8, ptr %0, i64 32
  %19 = load i64, ptr %18, align 8, !tbaa !22
  %20 = sub i64 %19, %.0
  store i64 %20, ptr %18, align 8, !tbaa !22
  br label %21

21:                                               ; preds = %5, %.thread
  %.011 = phi ptr [ @_Py_NoneStruct, %.thread ], [ null, %5 ]
  ret ptr %.011
}